target datalayout = "e-m:e-p270:32:32-p271:32:32-p272:64:64-i64:64-i128:128-f80:128-n8:16:32:64-S128"
target triple = "x86_64-pc-linux-gnu"

; Function Attrs: nounwind uwtable
define i32 @Kit_PlaIsComplement(ptr noundef %0) #0 {
  %2 = alloca i32, align 4
  %3 = alloca ptr, align 8
  %4 = alloca ptr, align 8
  %5 = alloca i32, align 4
  store ptr %0, ptr %3, align 8, !tbaa !3
  call void @llvm.lifetime.start.p0(i64 8, ptr %4) #9
  %6 = load ptr, ptr %3, align 8, !tbaa !3
  store ptr %6, ptr %4, align 8, !tbaa !3
  br label %7

7:                                                ; preds = %32, %1
  %8 = load ptr, ptr %4, align 8, !tbaa !3
  %9 = load i8, ptr %8, align 1, !tbaa !8
  %10 = icmp ne i8 %9, 0
  br i1 %10, label %11, label %35

11:                                               ; preds = %7
  %12 = load ptr, ptr %4, align 8, !tbaa !3
  %13 = load i8, ptr %12, align 1, !tbaa !8
  %14 = sext i8 %13 to i32
  %15 = icmp eq i32 %14, 10
  br i1 %15, label %16, label %31

16:                                               ; preds = %11
  %17 = load ptr, ptr %4, align 8, !tbaa !3
  %18 = getelementptr inbounds i8, ptr %17, i64 -1
  %19 = load i8, ptr %18, align 1, !tbaa !8
  %20 = sext i8 %19 to i32
  %21 = icmp eq i32 %20, 48
  br i1 %21, label %28, label %22

22:                                               ; preds = %16
  %23 = load ptr, ptr %4, align 8, !tbaa !3
  %24 = getelementptr inbounds i8, ptr %23, i64 -1
  %25 = load i8, ptr %24, align 1, !tbaa !8
  %26 = sext i8 %25 to i32
  %27 = icmp eq i32 %26, 110
  br label %28

28:                                               ; preds = %22, %16
  %29 = phi i1 [ true, %16 ], [ %27, %22 ]
  %30 = zext i1 %29 to i32
  store i32 %30, ptr %2, align 4
  store i32 1, ptr %5, align 4
  br label %36

31:                                               ; preds = %11
  br label %32

32:                                               ; preds = %31
  %33 = load ptr, ptr %4, align 8, !tbaa !3
  %34 = getelementptr inbounds nuw i8, ptr %33, i32 1
  store ptr %34, ptr %4, align 8, !tbaa !3
  br label %7, !llvm.loop !14

35:                                               ; preds = %7
  store i32 0, ptr %2, align 4
  store i32 1, ptr %5, align 4
  br label %36

36:                                               ; preds = %35, %28
  call void @llvm.lifetime.end.p0(i64 8, ptr %4) #9
  %37 = load i32, ptr %2, align 4
  ret i32 %37
}