; Function Attrs: nofree norecurse nosync nounwind memory(argmem: read) uwtable
define range(i32 0, 2) i32 @Kit_PlaIsComplement(ptr noundef readonly captures(none) %0) local_unnamed_addr #1 {
  br label %2

2:                                                ; preds = %10, %1
  %.0 = phi ptr [ %0, %1 ], [ %11, %10 ]
  %3 = load i8, ptr %.0, align 1, !tbaa !3
  switch i8 %3, label %10 [
    i8 0, label %.loopexit
    i8 10, label %4
  ]

4:                                                ; preds = %2
  %5 = getelementptr inbounds i8, ptr %.0, i64 -1
  %6 = load i8, ptr %5, align 1, !tbaa !3
  %7 = icmp eq i8 %6, 48
  %8 = icmp eq i8 %6, 110
  %narrow = or i1 %7, %8
  %9 = zext i1 %narrow to i32
  br label %.loopexit

10:                                               ; preds = %2
  %11 = getelementptr inbounds nuw i8, ptr %.0, i64 1
  br label %2, !llvm.loop !9

.loopexit:                                        ; preds = %2, %4
  %.06 = phi i32 [ %9, %4 ], [ 0, %2 ]
  ret i32 %.06
}